target datalayout = "e-m:e-p270:32:32-p271:32:32-p272:64:64-i64:64-i128:128-f80:128-n8:16:32:64-S128"
target triple = "x86_64-pc-linux-gnu"

; Function Attrs: nounwind uwtable
define zeroext i8 @l_Lean_IR_ExplicitBoxing_eqvTypes(ptr noundef %0, ptr noundef %1) #2 {
  %3 = alloca i8, align 1
  %4 = alloca ptr, align 8
  %5 = alloca ptr, align 8
  %6 = alloca i8, align 1
  %7 = alloca i8, align 1
  %8 = alloca i8, align 1
  %9 = alloca i32, align 4
  %10 = alloca i8, align 1
  %11 = alloca i8, align 1
  %12 = alloca i8, align 1
  store ptr %0, ptr %4, align 8, !tbaa !8
  store ptr %1, ptr %5, align 8, !tbaa !8
  br label %13

13:                                               ; preds = %2
  call void @llvm.lifetime.start.p0(i64 1, ptr %6) #7
  call void @llvm.lifetime.start.p0(i64 1, ptr %7) #7
  %14 = load ptr, ptr %4, align 8, !tbaa !8
  %15 = call zeroext i8 @l_Lean_IR_IRType_isScalar(ptr noundef %14)
  store i8 %15, ptr %6, align 1, !tbaa !12
  %16 = load ptr, ptr %5, align 8, !tbaa !8
  %17 = call zeroext i8 @l_Lean_IR_IRType_isScalar(ptr noundef %16)
  store i8 %17, ptr %7, align 1, !tbaa !12
  %18 = load i8, ptr %6, align 1, !tbaa !12
  %19 = zext i8 %18 to i32
  %20 = icmp eq i32 %19, 0
  br i1 %20, label %21, label %29

21:                                               ; preds = %13
  %22 = load i8, ptr %7, align 1, !tbaa !12
  %23 = zext i8 %22 to i32
  %24 = icmp eq i32 %23, 0
  br i1 %24, label %25, label %27

25:                                               ; preds = %21
  call void @llvm.lifetime.start.p0(i64 1, ptr %8) #7
  store i8 1, ptr %8, align 1, !tbaa !12
  %26 = load i8, ptr %8, align 1, !tbaa !12
  store i8 %26, ptr %3, align 1
  store i32 1, ptr %9, align 4
  call void @llvm.lifetime.end.p0(i64 1, ptr %8) #7
  br label %40

27:                                               ; preds = %21
  call void @llvm.lifetime.start.p0(i64 1, ptr %10) #7
  store i8 0, ptr %10, align 1, !tbaa !12
  %28 = load i8, ptr %10, align 1, !tbaa !12
  store i8 %28, ptr %3, align 1
  store i32 1, ptr %9, align 4
  call void @llvm.lifetime.end.p0(i64 1, ptr %10) #7
  br label %40

29:                                               ; preds = %13
  %30 = load i8, ptr %7, align 1, !tbaa !12
  %31 = zext i8 %30 to i32
  %32 = icmp eq i32 %31, 0
  br i1 %32, label %33, label %35

33:                                               ; preds = %29
  call void @llvm.lifetime.start.p0(i64 1, ptr %11) #7
  store i8 0, ptr %11, align 1, !tbaa !12
  %34 = load i8, ptr %11, align 1, !tbaa !12
  store i8 %34, ptr %3, align 1
  store i32 1, ptr %9, align 4
  call void @llvm.lifetime.end.p0(i64 1, ptr %11) #7
  br label %40

35:                                               ; preds = %29
  call void @llvm.lifetime.start.p0(i64 1, ptr %12) #7
  %36 = load ptr, ptr %4, align 8, !tbaa !8
  %37 = load ptr, ptr %5, align 8, !tbaa !8
  %38 = call zeroext i8 @l_Lean_IR_IRType_beq(ptr noundef %36, ptr noundef %37)
  store i8 %38, ptr %12, align 1, !tbaa !12
  %39 = load i8, ptr %12, align 1, !tbaa !12
  store i8 %39, ptr %3, align 1
  store i32 1, ptr %9, align 4
  call void @llvm.lifetime.end.p0(i64 1, ptr %12) #7
  br label %40

40:                                               ; preds = %35, %33, %27, %25
  call void @llvm.lifetime.end.p0(i64 1, ptr %7) #7
  call void @llvm.lifetime.end.p0(i64 1, ptr %6) #7
  %41 = load i8, ptr %3, align 1
  ret i8 %41
}