; Function Attrs: nounwind uwtable
define zeroext i8 @l_Lean_IR_ExplicitBoxing_eqvTypes(ptr noundef %0, ptr noundef %1) local_unnamed_addr #0 {
  %3 = tail call zeroext i8 @l_Lean_IR_IRType_isScalar(ptr noundef %0) #6
  %4 = tail call zeroext i8 @l_Lean_IR_IRType_isScalar(ptr noundef %1) #6
  %5 = icmp eq i8 %3, 0
  %6 = icmp eq i8 %4, 0
  br i1 %5, label %7, label %8

7:                                                ; preds = %2
  %. = zext i1 %6 to i8
  br label %11

8:                                                ; preds = %2
  br i1 %6, label %11, label %9

9:                                                ; preds = %8
  %10 = tail call zeroext i8 @l_Lean_IR_IRType_beq(ptr noundef %0, ptr noundef %1) #6
  br label %11

11:                                               ; preds = %8, %7, %9
  %.0 = phi i8 [ %10, %9 ], [ %., %7 ], [ 0, %8 ]
  ret i8 %.0
}